target datalayout = "e-m:e-p270:32:32-p271:32:32-p272:64:64-i64:64-i128:128-f80:128-n8:16:32:64-S128"
target triple = "x86_64-pc-linux-gnu"

%struct.CFF_ParserRec_ = type { ptr, ptr, ptr, ptr, ptr, ptr, i32, i32, ptr, i16, i16 }

@power_tens = internal constant [10 x i64] [i64 1, i64 10, i64 100, i64 1000, i64 10000, i64 100000, i64 1000000, i64 10000000, i64 100000000, i64 1000000000], align 16
@power_ten_limits = internal constant [10 x i64] [i64 9223372036854775807, i64 922337203685477580, i64 92233720368547758, i64 9223372036854775, i64 922337203685477, i64 92233720368547, i64 9223372036854, i64 922337203685, i64 92233720368, i64 9223372036], align 16

; Function Attrs: nounwind uwtable
define internal i64 @cff_parse_integer(ptr noundef %0, ptr noundef %1) #0 {
  %3 = alloca ptr, align 8
  %4 = alloca ptr, align 8
  %5 = alloca ptr, align 8
  %6 = alloca i32, align 4
  %7 = alloca i64, align 8
  store ptr %0, ptr %3, align 8
  store ptr %1, ptr %4, align 8
  %8 = load ptr, ptr %3, align 8
  store ptr %8, ptr %5, align 8
  %9 = load ptr, ptr %5, align 8
  %10 = getelementptr inbounds i8, ptr %9, i32 1
  store ptr %10, ptr %5, align 8
  %11 = load i8, ptr %9, align 1
  %12 = zext i8 %11 to i32
  store i32 %12, ptr %6, align 4
  store i64 0, ptr %7, align 8
  %13 = load i32, ptr %6, align 4
  %14 = icmp eq i32 %13, 28
  br i1 %14, label %15, label %39

15:                                               ; preds = %2
  %16 = load ptr, ptr %5, align 8
  %17 = getelementptr inbounds i8, ptr %16, i64 2
  %18 = load ptr, ptr %4, align 8
  %19 = icmp ugt ptr %17, %18
  br i1 %19, label %20, label %25

20:                                               ; preds = %15
  %21 = load ptr, ptr %4, align 8
  %22 = load ptr, ptr %5, align 8
  %23 = icmp uge ptr %21, %22
  br i1 %23, label %24, label %25

24:                                               ; preds = %20
  br label %134

25:                                               ; preds = %20, %15
  %26 = load ptr, ptr %5, align 8
  %27 = getelementptr inbounds i8, ptr %26, i64 0
  %28 = load i8, ptr %27, align 1
  %29 = zext i8 %28 to i16
  %30 = zext i16 %29 to i32
  %31 = shl i32 %30, 8
  %32 = load ptr, ptr %5, align 8
  %33 = getelementptr inbounds i8, ptr %32, i64 1
  %34 = load i8, ptr %33, align 1
  %35 = zext i8 %34 to i32
  %36 = or i32 %31, %35
  %37 = trunc i32 %36 to i16
  %38 = sext i16 %37 to i64
  store i64 %38, ptr %7, align 8
  br label %131

39:                                               ; preds = %2
  %40 = load i32, ptr %6, align 4
  %41 = icmp eq i32 %40, 29
  br i1 %41, label %42, label %75

42:                                               ; preds = %39
  %43 = load ptr, ptr %5, align 8
  %44 = getelementptr inbounds i8, ptr %43, i64 4
  %45 = load ptr, ptr %4, align 8
  %46 = icmp ugt ptr %44, %45
  br i1 %46, label %47, label %52

47:                                               ; preds = %42
  %48 = load ptr, ptr %4, align 8
  %49 = load ptr, ptr %5, align 8
  %50 = icmp uge ptr %48, %49
  br i1 %50, label %51, label %52

51:                                               ; preds = %47
  br label %134

52:                                               ; preds = %47, %42
  %53 = load ptr, ptr %5, align 8
  %54 = getelementptr inbounds i8, ptr %53, i64 0
  %55 = load i8, ptr %54, align 1
  %56 = zext i8 %55 to i64
  %57 = shl i64 %56, 24
  %58 = load ptr, ptr %5, align 8
  %59 = getelementptr inbounds i8, ptr %58, i64 1
  %60 = load i8, ptr %59, align 1
  %61 = zext i8 %60 to i64
  %62 = shl i64 %61, 16
  %63 = or i64 %57, %62
  %64 = load ptr, ptr %5, align 8
  %65 = getelementptr inbounds i8, ptr %64, i64 2
  %66 = load i8, ptr %65, align 1
  %67 = zext i8 %66 to i64
  %68 = shl i64 %67, 8
  %69 = or i64 %63, %68
  %70 = load ptr, ptr %5, align 8
  %71 = getelementptr inbounds i8, ptr %70, i64 3
  %72 = load i8, ptr %71, align 1
  %73 = zext i8 %72 to i64
  %74 = or i64 %69, %73
  store i64 %74, ptr %7, align 8
  br label %130

75:                                               ; preds = %39
  %76 = load i32, ptr %6, align 4
  %77 = icmp slt i32 %76, 247
  br i1 %77, label %78, label %82

78:                                               ; preds = %75
  %79 = load i32, ptr %6, align 4
  %80 = sub nsw i32 %79, 139
  %81 = sext i32 %80 to i64
  store i64 %81, ptr %7, align 8
  br label %129

82:                                               ; preds = %75
  %83 = load i32, ptr %6, align 4
  %84 = icmp slt i32 %83, 251
  br i1 %84, label %85, label %106

85:                                               ; preds = %82
  %86 = load ptr, ptr %5, align 8
  %87 = getelementptr inbounds i8, ptr %86, i64 1
  %88 = load ptr, ptr %4, align 8
  %89 = icmp ugt ptr %87, %88
  br i1 %89, label %90, label %95

90:                                               ; preds = %85
  %91 = load ptr, ptr %4, align 8
  %92 = load ptr, ptr %5, align 8
  %93 = icmp uge ptr %91, %92
  br i1 %93, label %94, label %95

94:                                               ; preds = %90
  br label %134

95:                                               ; preds = %90, %85
  %96 = load i32, ptr %6, align 4
  %97 = sub nsw i32 %96, 247
  %98 = mul nsw i32 %97, 256
  %99 = load ptr, ptr %5, align 8
  %100 = getelementptr inbounds i8, ptr %99, i64 0
  %101 = load i8, ptr %100, align 1
  %102 = zext i8 %101 to i32
  %103 = add nsw i32 %98, %102
  %104 = add nsw i32 %103, 108
  %105 = sext i32 %104 to i64
  store i64 %105, ptr %7, align 8
  br label %128

106:                                              ; preds = %82
  %107 = load ptr, ptr %5, align 8
  %108 = getelementptr inbounds i8, ptr %107, i64 1
  %109 = load ptr, ptr %4, align 8
  %110 = icmp ugt ptr %108, %109
  br i1 %110, label %111, label %116

111:                                              ; preds = %106
  %112 = load ptr, ptr %4, align 8
  %113 = load ptr, ptr %5, align 8
  %114 = icmp uge ptr %112, %113
  br i1 %114, label %115, label %116

115:                                              ; preds = %111
  br label %134

116:                                              ; preds = %111, %106
  %117 = load i32, ptr %6, align 4
  %118 = sub nsw i32 %117, 251
  %119 = sub nsw i32 0, %118
  %120 = mul nsw i32 %119, 256
  %121 = load ptr, ptr %5, align 8
  %122 = getelementptr inbounds i8, ptr %121, i64 0
  %123 = load i8, ptr %122, align 1
  %124 = zext i8 %123 to i32
  %125 = sub nsw i32 %120, %124
  %126 = sub nsw i32 %125, 108
  %127 = sext i32 %126 to i64
  store i64 %127, ptr %7, align 8
  br label %128

128:                                              ; preds = %116, %95
  br label %129

129:                                              ; preds = %128, %78
  br label %130

130:                                              ; preds = %129, %52
  br label %131

131:                                              ; preds = %130, %25
  br label %132

132:                                              ; preds = %136, %131
  %133 = load i64, ptr %7, align 8
  ret i64 %133

134:                                              ; preds = %115, %94, %51, %24
  store i64 0, ptr %7, align 8
  br label %135

135:                                              ; preds = %134
  br label %136

136:                                              ; preds = %135
  br label %132
}

; Function Attrs: nounwind uwtable
define internal i64 @do_fixed(ptr noundef %0, ptr noundef %1, i64 noundef %2) #0 {
  %4 = alloca i64, align 8
  %5 = alloca ptr, align 8
  %6 = alloca ptr, align 8
  %7 = alloca i64, align 8
  %8 = alloca i64, align 8
  %9 = alloca i64, align 8
  store ptr %0, ptr %5, align 8
  store ptr %1, ptr %6, align 8
  store i64 %2, ptr %7, align 8
  %10 = load ptr, ptr %6, align 8
  %11 = load ptr, ptr %10, align 8
  %12 = load i8, ptr %11, align 1
  %13 = zext i8 %12 to i32
  %14 = icmp eq i32 %13, 30
  br i1 %14, label %15, label %23

15:                                               ; preds = %3
  %16 = load ptr, ptr %6, align 8
  %17 = load ptr, ptr %16, align 8
  %18 = load ptr, ptr %5, align 8
  %19 = getelementptr inbounds %struct.CFF_ParserRec_, ptr %18, i32 0, i32 2
  %20 = load ptr, ptr %19, align 8
  %21 = load i64, ptr %7, align 8
  %22 = call i64 @cff_parse_real(ptr noundef %17, ptr noundef %20, i64 noundef %21, ptr noundef null)
  store i64 %22, ptr %4, align 8
  br label %141

23:                                               ; preds = %3
  %24 = load ptr, ptr %6, align 8
  %25 = load ptr, ptr %24, align 8
  %26 = load i8, ptr %25, align 1
  %27 = zext i8 %26 to i32
  %28 = icmp eq i32 %27, 255
  br i1 %28, label %29, label %91

29:                                               ; preds = %23
  %30 = load ptr, ptr %6, align 8
  %31 = getelementptr inbounds ptr, ptr %30, i64 0
  %32 = load ptr, ptr %31, align 8
  %33 = getelementptr inbounds i8, ptr %32, i64 1
  %34 = load i8, ptr %33, align 1
  %35 = zext i8 %34 to i32
  %36 = shl i32 %35, 24
  %37 = load ptr, ptr %6, align 8
  %38 = getelementptr inbounds ptr, ptr %37, i64 0
  %39 = load ptr, ptr %38, align 8
  %40 = getelementptr inbounds i8, ptr %39, i64 2
  %41 = load i8, ptr %40, align 1
  %42 = zext i8 %41 to i32
  %43 = shl i32 %42, 16
  %44 = or i32 %36, %43
  %45 = load ptr, ptr %6, align 8
  %46 = getelementptr inbounds ptr, ptr %45, i64 0
  %47 = load ptr, ptr %46, align 8
  %48 = getelementptr inbounds i8, ptr %47, i64 3
  %49 = load i8, ptr %48, align 1
  %50 = zext i8 %49 to i32
  %51 = shl i32 %50, 8
  %52 = or i32 %44, %51
  %53 = load ptr, ptr %6, align 8
  %54 = getelementptr inbounds ptr, ptr %53, i64 0
  %55 = load ptr, ptr %54, align 8
  %56 = getelementptr inbounds i8, ptr %55, i64 4
  %57 = load i8, ptr %56, align 1
  %58 = zext i8 %57 to i32
  %59 = or i32 %52, %58
  %60 = sext i32 %59 to i64
  store i64 %60, ptr %8, align 8
  %61 = load i64, ptr %7, align 8
  %62 = icmp ne i64 %61, 0
  br i1 %62, label %63, label %89

63:                                               ; preds = %29
  %64 = load i64, ptr %8, align 8
  %65 = icmp slt i64 %64, 0
  br i1 %65, label %66, label %69

66:                                               ; preds = %63
  %67 = load i64, ptr %8, align 8
  %68 = sub nsw i64 0, %67
  br label %71

69:                                               ; preds = %63
  %70 = load i64, ptr %8, align 8
  br label %71

71:                                               ; preds = %69, %66
  %72 = phi i64 [ %68, %66 ], [ %70, %69 ]
  %73 = load i64, ptr %7, align 8
  %74 = getelementptr inbounds [10 x i64], ptr @power_ten_limits, i64 0, i64 %73
  %75 = load i64, ptr %74, align 8
  %76 = icmp sgt i64 %72, %75
  br i1 %76, label %77, label %83

77:                                               ; preds = %71
  br label %78

78:                                               ; preds = %77
  br label %79

79:                                               ; preds = %78
  %80 = load i64, ptr %8, align 8
  %81 = icmp sgt i64 %80, 0
  %82 = select i1 %81, i64 2147483647, i64 -2147483647
  store i64 %82, ptr %4, align 8
  br label %141

83:                                               ; preds = %71
  %84 = load i64, ptr %7, align 8
  %85 = getelementptr inbounds [10 x i64], ptr @power_tens, i64 0, i64 %84
  %86 = load i64, ptr %85, align 8
  %87 = load i64, ptr %8, align 8
  %88 = mul nsw i64 %87, %86
  store i64 %88, ptr %8, align 8
  br label %89

89:                                               ; preds = %83, %29
  %90 = load i64, ptr %8, align 8
  store i64 %90, ptr %4, align 8
  br label %141

91:                                               ; preds = %23
  %92 = load ptr, ptr %6, align 8
  %93 = load ptr, ptr %92, align 8
  %94 = load ptr, ptr %5, align 8
  %95 = getelementptr inbounds %struct.CFF_ParserRec_, ptr %94, i32 0, i32 2
  %96 = load ptr, ptr %95, align 8
  %97 = call i64 @cff_parse_integer(ptr noundef %93, ptr noundef %96)
  store i64 %97, ptr %9, align 8
  %98 = load i64, ptr %7, align 8
  %99 = icmp ne i64 %98, 0
  br i1 %99, label %100, label %125

100:                                              ; preds = %91
  %101 = load i64, ptr %9, align 8
  %102 = icmp slt i64 %101, 0
  br i1 %102, label %103, label %106

103:                                              ; preds = %100
  %104 = load i64, ptr %9, align 8
  %105 = sub nsw i64 0, %104
  br label %108

106:                                              ; preds = %100
  %107 = load i64, ptr %9, align 8
  br label %108

108:                                              ; preds = %106, %103
  %109 = phi i64 [ %105, %103 ], [ %107, %106 ]
  %110 = shl i64 %109, 16
  %111 = load i64, ptr %7, align 8
  %112 = getelementptr inbounds [10 x i64], ptr @power_ten_limits, i64 0, i64 %111
  %113 = load i64, ptr %112, align 8
  %114 = icmp sgt i64 %110, %113
  br i1 %114, label %115, label %119

115:                                              ; preds = %108
  %116 = load i64, ptr %9, align 8
  %117 = icmp sgt i64 %116, 0
  %118 = select i1 %117, i64 2147483647, i64 -2147483647
  store i64 %118, ptr %9, align 8
  br label %137

119:                                              ; preds = %108
  %120 = load i64, ptr %7, align 8
  %121 = getelementptr inbounds [10 x i64], ptr @power_tens, i64 0, i64 %120
  %122 = load i64, ptr %121, align 8
  %123 = load i64, ptr %9, align 8
  %124 = mul nsw i64 %123, %122
  store i64 %124, ptr %9, align 8
  br label %125

125:                                              ; preds = %119, %91
  %126 = load i64, ptr %9, align 8
  %127 = icmp sgt i64 %126, 32767
  br i1 %127, label %128, label %129

128:                                              ; preds = %125
  store i64 2147483647, ptr %9, align 8
  br label %137

129:                                              ; preds = %125
  %130 = load i64, ptr %9, align 8
  %131 = icmp slt i64 %130, -32767
  br i1 %131, label %132, label %133

132:                                              ; preds = %129
  store i64 -2147483647, ptr %9, align 8
  br label %137

133:                                              ; preds = %129
  br label %134

134:                                              ; preds = %133
  %135 = load i64, ptr %9, align 8
  %136 = shl i64 %135, 16
  store i64 %136, ptr %4, align 8
  br label %141

137:                                              ; preds = %132, %128, %115
  br label %138

138:                                              ; preds = %137
  br label %139

139:                                              ; preds = %138
  %140 = load i64, ptr %9, align 8
  store i64 %140, ptr %4, align 8
  br label %141

141:                                              ; preds = %139, %134, %89, %79, %15
  %142 = load i64, ptr %4, align 8
  ret i64 %142
}