; Function Attrs: nounwind uwtable
define internal fastcc i64 @do_fixed(ptr nocapture noundef readonly %0, ptr %.0.val, i64 noundef %1) unnamed_addr #4 {
  %3 = load i8, ptr %.0.val, align 1
  switch i8 %3, label %40 [
    i8 30, label %4
    i8 -1, label %8
  ]

4:                                                ; preds = %2
  %5 = getelementptr inbounds i8, ptr %0, i64 16
  %6 = load ptr, ptr %5, align 8
  %7 = tail call fastcc i64 @cff_parse_real(ptr noundef nonnull %.0.val, ptr noundef %6, i64 noundef %1, ptr noundef null)
  br label %121

8:                                                ; preds = %2
  %9 = getelementptr inbounds i8, ptr %.0.val, i64 1
  %10 = load i8, ptr %9, align 1
  %11 = zext i8 %10 to i32
  %12 = shl nuw i32 %11, 24
  %13 = getelementptr inbounds i8, ptr %.0.val, i64 2
  %14 = load i8, ptr %13, align 1
  %15 = zext i8 %14 to i32
  %16 = shl nuw nsw i32 %15, 16
  %17 = or disjoint i32 %16, %12
  %18 = getelementptr inbounds i8, ptr %.0.val, i64 3
  %19 = load i8, ptr %18, align 1
  %20 = zext i8 %19 to i32
  %21 = shl nuw nsw i32 %20, 8
  %22 = or disjoint i32 %17, %21
  %23 = getelementptr inbounds i8, ptr %.0.val, i64 4
  %24 = load i8, ptr %23, align 1
  %25 = zext i8 %24 to i32
  %26 = or disjoint i32 %22, %25
  %27 = sext i32 %26 to i64
  %.not37 = icmp eq i64 %1, 0
  br i1 %.not37, label %121, label %28

28:                                               ; preds = %8
  %29 = tail call i64 @llvm.abs.i64(i64 %27, i1 true)
  %30 = getelementptr inbounds [10 x i64], ptr @power_ten_limits, i64 0, i64 %1
  %31 = load i64, ptr %30, align 8
  %32 = icmp sgt i64 %29, %31
  br i1 %32, label %33, label %36

33:                                               ; preds = %28
  %34 = icmp sgt i32 %26, 0
  %35 = select i1 %34, i64 2147483647, i64 -2147483647
  br label %121

36:                                               ; preds = %28
  %37 = getelementptr inbounds [10 x i64], ptr @power_tens, i64 0, i64 %1
  %38 = load i64, ptr %37, align 8
  %39 = mul nsw i64 %38, %27
  br label %121

40:                                               ; preds = %2
  %41 = getelementptr inbounds i8, ptr %0, i64 16
  %42 = load ptr, ptr %41, align 8
  %43 = getelementptr inbounds i8, ptr %.0.val, i64 1
  %44 = zext i8 %3 to i32
  switch i8 %3, label %78 [
    i8 28, label %45
    i8 29, label %57
  ]

45:                                               ; preds = %40
  %46 = getelementptr inbounds i8, ptr %.0.val, i64 3
  %47 = icmp ule ptr %46, %42
  %.not37.i = icmp ugt ptr %43, %42
  %or.cond.i = select i1 %47, i1 true, i1 %.not37.i
  br i1 %or.cond.i, label %48, label %cff_parse_integer.exit

48:                                               ; preds = %45
  %49 = load i8, ptr %43, align 1
  %50 = zext i8 %49 to i16
  %51 = shl nuw i16 %50, 8
  %52 = getelementptr inbounds i8, ptr %.0.val, i64 2
  %53 = load i8, ptr %52, align 1
  %54 = zext i8 %53 to i16
  %55 = or disjoint i16 %51, %54
  %56 = sext i16 %55 to i64
  br label %cff_parse_integer.exit

57:                                               ; preds = %40
  %58 = getelementptr inbounds i8, ptr %.0.val, i64 5
  %59 = icmp ule ptr %58, %42
  %.not36.i = icmp ugt ptr %43, %42
  %or.cond38.i = select i1 %59, i1 true, i1 %.not36.i
  br i1 %or.cond38.i, label %60, label %cff_parse_integer.exit

60:                                               ; preds = %57
  %61 = load i8, ptr %43, align 1
  %62 = zext i8 %61 to i64
  %63 = shl nuw nsw i64 %62, 24
  %64 = getelementptr inbounds i8, ptr %.0.val, i64 2
  %65 = load i8, ptr %64, align 1
  %66 = zext i8 %65 to i64
  %67 = shl nuw nsw i64 %66, 16
  %68 = or disjoint i64 %67, %63
  %69 = getelementptr inbounds i8, ptr %.0.val, i64 3
  %70 = load i8, ptr %69, align 1
  %71 = zext i8 %70 to i64
  %72 = shl nuw nsw i64 %71, 8
  %73 = or disjoint i64 %68, %72
  %74 = getelementptr inbounds i8, ptr %.0.val, i64 4
  %75 = load i8, ptr %74, align 1
  %76 = zext i8 %75 to i64
  %77 = or disjoint i64 %73, %76
  br label %cff_parse_integer.exit

78:                                               ; preds = %40
  %79 = icmp ult i8 %3, -9
  br i1 %79, label %80, label %83

80:                                               ; preds = %78
  %81 = add nsw i32 %44, -139
  %82 = sext i32 %81 to i64
  br label %cff_parse_integer.exit

83:                                               ; preds = %78
  %84 = icmp ult i8 %3, -5
  %85 = getelementptr inbounds i8, ptr %.0.val, i64 2
  %86 = icmp ule ptr %85, %42
  %.not35.i = icmp ugt ptr %43, %42
  %or.cond39.i = select i1 %86, i1 true, i1 %.not35.i
  br i1 %84, label %87, label %95

87:                                               ; preds = %83
  br i1 %or.cond39.i, label %88, label %cff_parse_integer.exit

88:                                               ; preds = %87
  %89 = shl nuw nsw i32 %44, 8
  %90 = load i8, ptr %43, align 1
  %91 = zext i8 %90 to i32
  %92 = add nsw i32 %89, -63124
  %93 = add nuw nsw i32 %92, %91
  %94 = zext nneg i32 %93 to i64
  br label %cff_parse_integer.exit

95:                                               ; preds = %83
  br i1 %or.cond39.i, label %96, label %cff_parse_integer.exit

96:                                               ; preds = %95
  %97 = shl nuw nsw i32 %44, 8
  %98 = load i8, ptr %43, align 1
  %99 = zext i8 %98 to i32
  %100 = or disjoint i32 %97, %99
  %101 = sub nsw i32 64148, %100
  %102 = sext i32 %101 to i64
  br label %cff_parse_integer.exit

cff_parse_integer.exit:                           ; preds = %45, %48, %57, %60, %80, %87, %88, %95, %96
  %.0.i = phi i64 [ %56, %48 ], [ %77, %60 ], [ %82, %80 ], [ %94, %88 ], [ %102, %96 ], [ 0, %95 ], [ 0, %87 ], [ 0, %57 ], [ 0, %45 ]
  %.not = icmp eq i64 %1, 0
  br i1 %.not, label %116, label %103

103:                                              ; preds = %cff_parse_integer.exit
  %104 = tail call i64 @llvm.abs.i64(i64 %.0.i, i1 true)
  %105 = shl nuw nsw i64 %104, 16
  %106 = getelementptr inbounds [10 x i64], ptr @power_ten_limits, i64 0, i64 %1
  %107 = load i64, ptr %106, align 8
  %108 = icmp sgt i64 %105, %107
  br i1 %108, label %109, label %112

109:                                              ; preds = %103
  %110 = icmp sgt i64 %.0.i, 0
  %111 = select i1 %110, i64 2147483647, i64 -2147483647
  br label %121

112:                                              ; preds = %103
  %113 = getelementptr inbounds [10 x i64], ptr @power_tens, i64 0, i64 %1
  %114 = load i64, ptr %113, align 8
  %115 = mul nsw i64 %114, %.0.i
  br label %116

116:                                              ; preds = %112, %cff_parse_integer.exit
  %.0 = phi i64 [ %115, %112 ], [ %.0.i, %cff_parse_integer.exit ]
  %117 = icmp sgt i64 %.0, 32767
  br i1 %117, label %121, label %118

118:                                              ; preds = %116
  %119 = icmp slt i64 %.0, -32767
  %120 = shl nsw i64 %.0, 16
  %spec.select = select i1 %119, i64 -2147483647, i64 %120
  br label %121

121:                                              ; preds = %118, %109, %116, %8, %36, %33, %4
  %.033 = phi i64 [ %7, %4 ], [ %35, %33 ], [ %39, %36 ], [ %27, %8 ], [ %111, %109 ], [ 2147483647, %116 ], [ %spec.select, %118 ]
  ret i64 %.033
}